; Function Attrs: mustprogress nounwind uwtable
define dso_local noundef zeroext i1 @_ZN4llvm13MemCpyOptPass7runImplERNS_8FunctionEPNS_17TargetLibraryInfoEPNS_9AAResultsEPNS_15AssumptionCacheEPNS_13DominatorTreeEPNS_17PostDominatorTreeEPNS_9MemorySSAE(ptr noundef nonnull align 8 dereferenceable(56) initializes((0, 56)) %0, ptr noundef nonnull align 8 dereferenceable(136) %1, ptr noundef %2, ptr noundef %3, ptr noundef %4, ptr noundef %5, ptr noundef %6, ptr noundef %7) local_unnamed_addr #0 align 2 {
  %9 = alloca %"class.llvm::MemorySSAUpdater", align 8
  store ptr %2, ptr %0, align 8
  %10 = getelementptr inbounds nuw i8, ptr %0, i64 8
  store ptr %3, ptr %10, align 8
  %11 = getelementptr inbounds nuw i8, ptr %0, i64 16
  store ptr %4, ptr %11, align 8
  %12 = getelementptr inbounds nuw i8, ptr %0, i64 24
  store ptr %5, ptr %12, align 8
  %13 = getelementptr inbounds nuw i8, ptr %0, i64 32
  store ptr %6, ptr %13, align 8
  %14 = getelementptr inbounds nuw i8, ptr %0, i64 40
  store ptr %7, ptr %14, align 8
  store ptr %7, ptr %9, align 8
  %15 = getelementptr inbounds nuw i8, ptr %9, i64 8
  %16 = getelementptr inbounds nuw i8, ptr %9, i64 24
  call void @_ZN4llvm15SmallVectorBaseIjEC2EPvm(ptr noundef nonnull align 8 dereferenceable(400) %15, ptr noundef nonnull %16, i64 noundef 16) #18
  %17 = getelementptr inbounds nuw i8, ptr %9, i64 408
  %18 = getelementptr inbounds nuw i8, ptr %9, i64 440
  store ptr %18, ptr %17, align 8
  %19 = getelementptr inbounds nuw i8, ptr %9, i64 416
  store ptr %18, ptr %19, align 8
  %20 = getelementptr inbounds nuw i8, ptr %9, i64 424
  store i32 8, ptr %20, align 8
  %21 = getelementptr inbounds nuw i8, ptr %9, i64 428
  store i32 0, ptr %21, align 4
  %22 = getelementptr inbounds nuw i8, ptr %9, i64 432
  store i32 0, ptr %22, align 8
  %23 = getelementptr inbounds nuw i8, ptr %9, i64 504
  %24 = getelementptr inbounds nuw i8, ptr %9, i64 520
  call void @_ZN4llvm15SmallVectorBaseIjEC2EPvm(ptr noundef nonnull align 8 dereferenceable(128) %23, ptr noundef nonnull %24, i64 noundef 8) #18
  %25 = getelementptr inbounds nuw i8, ptr %9, i64 592
  store i32 0, ptr %25, align 8
  %26 = getelementptr inbounds nuw i8, ptr %9, i64 600
  store ptr null, ptr %26, align 8
  %27 = getelementptr inbounds nuw i8, ptr %9, i64 608
  store ptr %25, ptr %27, align 8
  %28 = getelementptr inbounds nuw i8, ptr %9, i64 616
  store ptr %25, ptr %28, align 8
  %29 = getelementptr inbounds nuw i8, ptr %9, i64 624
  store i64 0, ptr %29, align 8
  %30 = getelementptr inbounds nuw i8, ptr %0, i64 48
  store ptr %9, ptr %30, align 8
  br label %31

31:                                               ; preds = %31, %8
  %.0 = phi i1 [ false, %8 ], [ true, %31 ]
  %32 = call noundef zeroext i1 @_ZN4llvm13MemCpyOptPass17iterateOnFunctionERNS_8FunctionE(ptr noundef nonnull align 8 dereferenceable(56) %0, ptr noundef nonnull align 8 dereferenceable(136) %1)
  br i1 %32, label %31, label %33, !llvm.loop !73

33:                                               ; preds = %31
  %34 = load i8, ptr @_ZN4llvm15VerifyMemorySSAE, align 1
  %35 = trunc i8 %34 to i1
  br i1 %35, label %36, label %37

36:                                               ; preds = %33
  call void @_ZNK4llvm9MemorySSA15verifyMemorySSAENS0_17VerificationLevelE(ptr noundef nonnull align 8 dereferenceable(325) %7, i32 noundef 0) #18
  br label %37

37:                                               ; preds = %36, %33
  call void @_ZN4llvm16MemorySSAUpdaterD2Ev(ptr noundef nonnull align 8 dereferenceable(632) %9) #18
  ret i1 %.0
}